; ModuleID = '64/1070.c'
source_filename = "64/1070.c"
target datalayout = "e-m:e-p270:32:32-p271:32:32-p272:64:64-i64:64-f80:128-n8:16:32:64-S128"
target triple = "x86_64-pc-linux-gnu"

@.str = private unnamed_addr constant [3 x i8] c"%d\00", align 1
@.str.1 = private unnamed_addr constant [9 x i8] c"%d %d %d\00", align 1
@.str.2 = private unnamed_addr constant [29 x i8] c"(%d,%d,%d)-(%d,%d,%d)=%.2lf\0A\00", align 1

; Function Attrs: noinline nounwind uwtable
define dso_local i32 @main() #0 {
  %1 = alloca i32, align 4
  %2 = alloca i32, align 4
  %3 = alloca [10 x i32], align 16
  %4 = alloca [10 x i32], align 16
  %5 = alloca [10 x i32], align 16
  %6 = alloca i32, align 4
  %7 = alloca i32, align 4
  %8 = alloca [50 x i32], align 16
  %9 = alloca [50 x i32], align 16
  %10 = alloca [50 x double], align 16
  %11 = alloca double, align 8
  %12 = alloca double, align 8
  %13 = alloca i32, align 4
  %14 = alloca i32, align 4
  %15 = alloca i32, align 4
  store i32 0, i32* %1, align 4
  store i32 0, i32* %15, align 4
  %16 = call i32 (i8*, ...) @__isoc99_scanf(i8* getelementptr inbounds ([3 x i8], [3 x i8]* @.str, i64 0, i64 0), i32* %2)
  store i32 0, i32* %13, align 4
  br label %17

17:                                               ; preds = %32, %0
  %18 = load i32, i32* %13, align 4
  %19 = load i32, i32* %2, align 4
  %20 = icmp slt i32 %18, %19
  br i1 %20, label %21, label %35

21:                                               ; preds = %17
  %22 = load i32, i32* %13, align 4
  %23 = sext i32 %22 to i64
  %24 = getelementptr inbounds [10 x i32], [10 x i32]* %3, i64 0, i64 %23
  %25 = load i32, i32* %13, align 4
  %26 = sext i32 %25 to i64
  %27 = getelementptr inbounds [10 x i32], [10 x i32]* %4, i64 0, i64 %26
  %28 = load i32, i32* %13, align 4
  %29 = sext i32 %28 to i64
  %30 = getelementptr inbounds [10 x i32], [10 x i32]* %5, i64 0, i64 %29
  %31 = call i32 (i8*, ...) @__isoc99_scanf(i8* getelementptr inbounds ([9 x i8], [9 x i8]* @.str.1, i64 0, i64 0), i32* %24, i32* %27, i32* %30)
  br label %32

32:                                               ; preds = %21
  %33 = load i32, i32* %13, align 4
  %34 = add nsw i32 %33, 1
  store i32 %34, i32* %13, align 4
  br label %17

35:                                               ; preds = %17
  store i32 0, i32* %13, align 4
  br label %36

36:                                               ; preds = %103, %35
  %37 = load i32, i32* %13, align 4
  %38 = load i32, i32* %2, align 4
  %39 = sub nsw i32 %38, 1
  %40 = icmp slt i32 %37, %39
  br i1 %40, label %41, label %106

41:                                               ; preds = %36
  %42 = load i32, i32* %13, align 4
  %43 = add nsw i32 %42, 1
  store i32 %43, i32* %14, align 4
  br label %44

44:                                               ; preds = %99, %41
  %45 = load i32, i32* %14, align 4
  %46 = load i32, i32* %2, align 4
  %47 = icmp slt i32 %45, %46
  br i1 %47, label %48, label %102

48:                                               ; preds = %44
  %49 = load i32, i32* %13, align 4
  %50 = sext i32 %49 to i64
  %51 = getelementptr inbounds [10 x i32], [10 x i32]* %3, i64 0, i64 %50
  %52 = load i32, i32* %51, align 4
  %53 = load i32, i32* %14, align 4
  %54 = sext i32 %53 to i64
  %55 = getelementptr inbounds [10 x i32], [10 x i32]* %3, i64 0, i64 %54
  %56 = load i32, i32* %55, align 4
  %57 = sub nsw i32 %52, %56
  %58 = sitofp i32 %57 to double
  %59 = call double @pow(double %58, double 2.000000e+00) #3
  %60 = load i32, i32* %13, align 4
  %61 = sext i32 %60 to i64
  %62 = getelementptr inbounds [10 x i32], [10 x i32]* %4, i64 0, i64 %61
  %63 = load i32, i32* %62, align 4
  %64 = load i32, i32* %14, align 4
  %65 = sext i32 %64 to i64
  %66 = getelementptr inbounds [10 x i32], [10 x i32]* %4, i64 0, i64 %65
  %67 = load i32, i32* %66, align 4
  %68 = sub nsw i32 %63, %67
  %69 = sitofp i32 %68 to double
  %70 = call double @pow(double %69, double 2.000000e+00) #3
  %71 = fadd double %59, %70
  %72 = load i32, i32* %13, align 4
  %73 = sext i32 %72 to i64
  %74 = getelementptr inbounds [10 x i32], [10 x i32]* %5, i64 0, i64 %73
  %75 = load i32, i32* %74, align 4
  %76 = load i32, i32* %14, align 4
  %77 = sext i32 %76 to i64
  %78 = getelementptr inbounds [10 x i32], [10 x i32]* %5, i64 0, i64 %77
  %79 = load i32, i32* %78, align 4
  %80 = sub nsw i32 %75, %79
  %81 = sitofp i32 %80 to double
  %82 = call double @pow(double %81, double 2.000000e+00) #3
  %83 = fadd double %71, %82
  %84 = call double @sqrt(double %83) #3
  store double %84, double* %12, align 8
  %85 = load double, double* %12, align 8
  %86 = load i32, i32* %15, align 4
  %87 = sext i32 %86 to i64
  %88 = getelementptr inbounds [50 x double], [50 x double]* %10, i64 0, i64 %87
  store double %85, double* %88, align 8
  %89 = load i32, i32* %13, align 4
  %90 = load i32, i32* %15, align 4
  %91 = sext i32 %90 to i64
  %92 = getelementptr inbounds [50 x i32], [50 x i32]* %8, i64 0, i64 %91
  store i32 %89, i32* %92, align 4
  %93 = load i32, i32* %14, align 4
  %94 = load i32, i32* %15, align 4
  %95 = sext i32 %94 to i64
  %96 = getelementptr inbounds [50 x i32], [50 x i32]* %9, i64 0, i64 %95
  store i32 %93, i32* %96, align 4
  %97 = load i32, i32* %15, align 4
  %98 = add nsw i32 %97, 1
  store i32 %98, i32* %15, align 4
  br label %99

99:                                               ; preds = %48
  %100 = load i32, i32* %14, align 4
  %101 = add nsw i32 %100, 1
  store i32 %101, i32* %14, align 4
  br label %44

102:                                              ; preds = %44
  br label %103

103:                                              ; preds = %102
  %104 = load i32, i32* %13, align 4
  %105 = add nsw i32 %104, 1
  store i32 %105, i32* %13, align 4
  br label %36

106:                                              ; preds = %36
  store i32 1, i32* %13, align 4
  br label %107

107:                                              ; preds = %194, %106
  %108 = load i32, i32* %13, align 4
  %109 = load i32, i32* %2, align 4
  %110 = load i32, i32* %2, align 4
  %111 = sub nsw i32 %110, 1
  %112 = mul nsw i32 %109, %111
  %113 = sdiv i32 %112, 2
  %114 = icmp sle i32 %108, %113
  br i1 %114, label %115, label %197

115:                                              ; preds = %107
  store i32 0, i32* %14, align 4
  br label %116

116:                                              ; preds = %190, %115
  %117 = load i32, i32* %14, align 4
  %118 = load i32, i32* %2, align 4
  %119 = load i32, i32* %2, align 4
  %120 = sub nsw i32 %119, 1
  %121 = mul nsw i32 %118, %120
  %122 = sdiv i32 %121, 2
  %123 = load i32, i32* %13, align 4
  %124 = sub nsw i32 %122, %123
  %125 = icmp slt i32 %117, %124
  br i1 %125, label %126, label %193

126:                                              ; preds = %116
  %127 = load i32, i32* %14, align 4
  %128 = sext i32 %127 to i64
  %129 = getelementptr inbounds [50 x double], [50 x double]* %10, i64 0, i64 %128
  %130 = load double, double* %129, align 8
  %131 = load i32, i32* %14, align 4
  %132 = add nsw i32 %131, 1
  %133 = sext i32 %132 to i64
  %134 = getelementptr inbounds [50 x double], [50 x double]* %10, i64 0, i64 %133
  %135 = load double, double* %134, align 8
  %136 = fcmp olt double %130, %135
  br i1 %136, label %137, label %189

137:                                              ; preds = %126
  %138 = load i32, i32* %14, align 4
  %139 = sext i32 %138 to i64
  %140 = getelementptr inbounds [50 x double], [50 x double]* %10, i64 0, i64 %139
  %141 = load double, double* %140, align 8
  store double %141, double* %11, align 8
  %142 = load i32, i32* %14, align 4
  %143 = add nsw i32 %142, 1
  %144 = sext i32 %143 to i64
  %145 = getelementptr inbounds [50 x double], [50 x double]* %10, i64 0, i64 %144
  %146 = load double, double* %145, align 8
  %147 = load i32, i32* %14, align 4
  %148 = sext i32 %147 to i64
  %149 = getelementptr inbounds [50 x double], [50 x double]* %10, i64 0, i64 %148
  store double %146, double* %149, align 8
  %150 = load double, double* %11, align 8
  %151 = load i32, i32* %14, align 4
  %152 = add nsw i32 %151, 1
  %153 = sext i32 %152 to i64
  %154 = getelementptr inbounds [50 x double], [50 x double]* %10, i64 0, i64 %153
  store double %150, double* %154, align 8
  %155 = load i32, i32* %14, align 4
  %156 = sext i32 %155 to i64
  %157 = getelementptr inbounds [50 x i32], [50 x i32]* %8, i64 0, i64 %156
  %158 = load i32, i32* %157, align 4
  store i32 %158, i32* %6, align 4
  %159 = load i32, i32* %14, align 4
  %160 = add nsw i32 %159, 1
  %161 = sext i32 %160 to i64
  %162 = getelementptr inbounds [50 x i32], [50 x i32]* %8, i64 0, i64 %161
  %163 = load i32, i32* %162, align 4
  %164 = load i32, i32* %14, align 4
  %165 = sext i32 %164 to i64
  %166 = getelementptr inbounds [50 x i32], [50 x i32]* %8, i64 0, i64 %165
  store i32 %163, i32* %166, align 4
  %167 = load i32, i32* %6, align 4
  %168 = load i32, i32* %14, align 4
  %169 = add nsw i32 %168, 1
  %170 = sext i32 %169 to i64
  %171 = getelementptr inbounds [50 x i32], [50 x i32]* %8, i64 0, i64 %170
  store i32 %167, i32* %171, align 4
  %172 = load i32, i32* %14, align 4
  %173 = sext i32 %172 to i64
  %174 = getelementptr inbounds [50 x i32], [50 x i32]* %9, i64 0, i64 %173
  %175 = load i32, i32* %174, align 4
  store i32 %175, i32* %7, align 4
  %176 = load i32, i32* %14, align 4
  %177 = add nsw i32 %176, 1
  %178 = sext i32 %177 to i64
  %179 = getelementptr inbounds [50 x i32], [50 x i32]* %9, i64 0, i64 %178
  %180 = load i32, i32* %179, align 4
  %181 = load i32, i32* %14, align 4
  %182 = sext i32 %181 to i64
  %183 = getelementptr inbounds [50 x i32], [50 x i32]* %9, i64 0, i64 %182
  store i32 %180, i32* %183, align 4
  %184 = load i32, i32* %7, align 4
  %185 = load i32, i32* %14, align 4
  %186 = add nsw i32 %185, 1
  %187 = sext i32 %186 to i64
  %188 = getelementptr inbounds [50 x i32], [50 x i32]* %9, i64 0, i64 %187
  store i32 %184, i32* %188, align 4
  br label %189

189:                                              ; preds = %137, %126
  br label %190

190:                                              ; preds = %189
  %191 = load i32, i32* %14, align 4
  %192 = add nsw i32 %191, 1
  store i32 %192, i32* %14, align 4
  br label %116

193:                                              ; preds = %116
  br label %194

194:                                              ; preds = %193
  %195 = load i32, i32* %13, align 4
  %196 = add nsw i32 %195, 1
  store i32 %196, i32* %13, align 4
  br label %107

197:                                              ; preds = %107
  store i32 0, i32* %13, align 4
  br label %198

198:                                              ; preds = %254, %197
  %199 = load i32, i32* %13, align 4
  %200 = load i32, i32* %2, align 4
  %201 = load i32, i32* %2, align 4
  %202 = sub nsw i32 %201, 1
  %203 = mul nsw i32 %200, %202
  %204 = sdiv i32 %203, 2
  %205 = icmp slt i32 %199, %204
  br i1 %205, label %206, label %257

206:                                              ; preds = %198
  %207 = load i32, i32* %13, align 4
  %208 = sext i32 %207 to i64
  %209 = getelementptr inbounds [50 x i32], [50 x i32]* %8, i64 0, i64 %208
  %210 = load i32, i32* %209, align 4
  %211 = sext i32 %210 to i64
  %212 = getelementptr inbounds [10 x i32], [10 x i32]* %3, i64 0, i64 %211
  %213 = load i32, i32* %212, align 4
  %214 = load i32, i32* %13, align 4
  %215 = sext i32 %214 to i64
  %216 = getelementptr inbounds [50 x i32], [50 x i32]* %8, i64 0, i64 %215
  %217 = load i32, i32* %216, align 4
  %218 = sext i32 %217 to i64
  %219 = getelementptr inbounds [10 x i32], [10 x i32]* %4, i64 0, i64 %218
  %220 = load i32, i32* %219, align 4
  %221 = load i32, i32* %13, align 4
  %222 = sext i32 %221 to i64
  %223 = getelementptr inbounds [50 x i32], [50 x i32]* %8, i64 0, i64 %222
  %224 = load i32, i32* %223, align 4
  %225 = sext i32 %224 to i64
  %226 = getelementptr inbounds [10 x i32], [10 x i32]* %5, i64 0, i64 %225
  %227 = load i32, i32* %226, align 4
  %228 = load i32, i32* %13, align 4
  %229 = sext i32 %228 to i64
  %230 = getelementptr inbounds [50 x i32], [50 x i32]* %9, i64 0, i64 %229
  %231 = load i32, i32* %230, align 4
  %232 = sext i32 %231 to i64
  %233 = getelementptr inbounds [10 x i32], [10 x i32]* %3, i64 0, i64 %232
  %234 = load i32, i32* %233, align 4
  %235 = load i32, i32* %13, align 4
  %236 = sext i32 %235 to i64
  %237 = getelementptr inbounds [50 x i32], [50 x i32]* %9, i64 0, i64 %236
  %238 = load i32, i32* %237, align 4
  %239 = sext i32 %238 to i64
  %240 = getelementptr inbounds [10 x i32], [10 x i32]* %4, i64 0, i64 %239
  %241 = load i32, i32* %240, align 4
  %242 = load i32, i32* %13, align 4
  %243 = sext i32 %242 to i64
  %244 = getelementptr inbounds [50 x i32], [50 x i32]* %9, i64 0, i64 %243
  %245 = load i32, i32* %244, align 4
  %246 = sext i32 %245 to i64
  %247 = getelementptr inbounds [10 x i32], [10 x i32]* %5, i64 0, i64 %246
  %248 = load i32, i32* %247, align 4
  %249 = load i32, i32* %13, align 4
  %250 = sext i32 %249 to i64
  %251 = getelementptr inbounds [50 x double], [50 x double]* %10, i64 0, i64 %250
  %252 = load double, double* %251, align 8
  %253 = call i32 (i8*, ...) @printf(i8* getelementptr inbounds ([29 x i8], [29 x i8]* @.str.2, i64 0, i64 0), i32 %213, i32 %220, i32 %227, i32 %234, i32 %241, i32 %248, double %252)
  br label %254

254:                                              ; preds = %206
  %255 = load i32, i32* %13, align 4
  %256 = add nsw i32 %255, 1
  store i32 %256, i32* %13, align 4
  br label %198

257:                                              ; preds = %198
  ret i32 0
}

declare dso_local i32 @__isoc99_scanf(i8*, ...) #1

; Function Attrs: nounwind
declare dso_local double @sqrt(double) #2

; Function Attrs: nounwind
declare dso_local double @pow(double, double) #2

declare dso_local i32 @printf(i8*, ...) #1


!llvm.module.flags = !{!0}
!llvm.ident = !{!1}

!0 = !{i32 1, !"wchar_size", i32 4}
!1 = !{!"clang version 10.0.0-4ubuntu1 "}
